; Function Attrs: nounwind uwtable
define internal fastcc ptr @lookupCreateVariable(ptr noundef captures(none) %0, ptr noundef %1, ptr noundef %2) unnamed_addr #0 {
  %4 = getelementptr inbounds nuw i8, ptr %0, i64 8
  %5 = load i32, ptr %4, align 8
  %6 = icmp slt i32 %5, 1
  br i1 %6, label %.loopexit21, label %7

7:                                                ; preds = %3
  %8 = getelementptr inbounds nuw i8, ptr %0, i64 16
  %9 = load i8, ptr %8, align 8, !range !20, !noundef !21
  %10 = trunc nuw i8 %9 to i1
  %11 = load ptr, ptr %0, align 8
  br i1 %10, label %.lr.ph.i.preheader.i, label %12

12:                                               ; preds = %7
  %13 = zext nneg i32 %5 to i64
  tail call void @pg_qsort(ptr noundef %11, i64 noundef %13, i64 noundef 32, ptr noundef nonnull @compareVariableNames) #25
  store i8 1, ptr %8, align 8
  %.pre.i = load i32, ptr %4, align 8
  %14 = load ptr, ptr %0, align 8
  %.not24.i.i = icmp eq i32 %.pre.i, 0
  br i1 %.not24.i.i, label %.loopexit21, label %.lr.ph.i.preheader.i

.lr.ph.i.preheader.i:                             ; preds = %12, %7
  %15 = phi ptr [ %14, %12 ], [ %11, %7 ]
  %16 = phi i32 [ %.pre.i, %12 ], [ %5, %7 ]
  %17 = sext i32 %16 to i64
  br label %.lr.ph.i.i

.lr.ph.i.i:                                       ; preds = %28, %.lr.ph.i.preheader.i
  %.01621.i.i = phi i64 [ %.1.i.i, %28 ], [ 0, %.lr.ph.i.preheader.i ]
  %.01720.i.i = phi i64 [ %.118.i.i, %28 ], [ %17, %.lr.ph.i.preheader.i ]
  %18 = add i64 %.01720.i.i, %.01621.i.i
  %19 = lshr i64 %18, 1
  %20 = shl i64 %19, 5
  %21 = getelementptr inbounds nuw i8, ptr %15, i64 %20
  %22 = load ptr, ptr %21, align 8
  %23 = tail call i32 @strcmp(ptr noundef nonnull readonly dereferenceable(1) %2, ptr noundef nonnull dereferenceable(1) %22) #27
  %24 = icmp slt i32 %23, 0
  br i1 %24, label %28, label %25

25:                                               ; preds = %.lr.ph.i.i
  %.not.i.i = icmp eq i32 %23, 0
  br i1 %.not.i.i, label %lookupVariable.exit.loopexit, label %26

26:                                               ; preds = %25
  %27 = add nuw i64 %19, 1
  br label %28

28:                                               ; preds = %26, %.lr.ph.i.i
  %.118.i.i = phi i64 [ %.01720.i.i, %26 ], [ %19, %.lr.ph.i.i ]
  %.1.i.i = phi i64 [ %27, %26 ], [ %.01621.i.i, %.lr.ph.i.i ]
  %29 = icmp ult i64 %.1.i.i, %.118.i.i
  br i1 %29, label %.lr.ph.i.i, label %.loopexit21, !llvm.loop !22

.loopexit21:                                      ; preds = %28, %3, %12
  %30 = phi i32 [ %5, %3 ], [ 0, %12 ], [ %16, %28 ]
  %31 = load i8, ptr %2, align 1
  %32 = zext i8 %31 to i32
  %33 = icmp eq i8 %31, 0
  br i1 %33, label %.loopexit, label %34

34:                                               ; preds = %.loopexit21
  %.not.i = icmp sgt i8 %31, -1
  br i1 %.not.i, label %35, label %36

35:                                               ; preds = %34
  %memchr.i = tail call ptr @memchr(ptr noundef nonnull dereferenceable(1) @.str.186, i32 %32, i64 54)
  %.not13.i = icmp eq ptr %memchr.i, null
  br i1 %.not13.i, label %.loopexit, label %36

36:                                               ; preds = %35, %34
  %.018.i = getelementptr inbounds nuw i8, ptr %2, i64 1
  %37 = load i8, ptr %.018.i, align 1
  %.not1419.i = icmp eq i8 %37, 0
  br i1 %.not1419.i, label %valid_variable_name.exit, label %.lr.ph.i

.lr.ph.i:                                         ; preds = %36, %41
  %38 = phi i8 [ %42, %41 ], [ %37, %36 ]
  %.020.i = phi ptr [ %.0.i18, %41 ], [ %.018.i, %36 ]
  %.not15.i = icmp sgt i8 %38, -1
  br i1 %.not15.i, label %39, label %41

39:                                               ; preds = %.lr.ph.i
  %40 = zext nneg i8 %38 to i32
  %memchr16.i = tail call ptr @memchr(ptr noundef nonnull dereferenceable(1) @.str.187, i32 %40, i64 64)
  %.not17.i = icmp eq ptr %memchr16.i, null
  br i1 %.not17.i, label %.loopexit, label %41

41:                                               ; preds = %39, %.lr.ph.i
  %.0.i18 = getelementptr inbounds nuw i8, ptr %.020.i, i64 1
  %42 = load i8, ptr %.0.i18, align 1
  %.not14.i = icmp eq i8 %42, 0
  br i1 %.not14.i, label %valid_variable_name.exit, label %.lr.ph.i, !llvm.loop !65

.loopexit:                                        ; preds = %39, %.loopexit21, %35
  tail call void (i32, i32, ptr, ...) @pg_log_generic(i32 noundef 4, i32 noundef 0, ptr noundef nonnull @.str.185, ptr noundef %1, ptr noundef nonnull %2) #25
  br label %lookupVariable.exit

valid_variable_name.exit:                         ; preds = %41, %36
  %43 = add i32 %30, 1
  %44 = getelementptr inbounds nuw i8, ptr %0, i64 12
  %45 = load i32, ptr %44, align 4
  %46 = icmp slt i32 %45, %43
  %.pre = load ptr, ptr %0, align 8
  br i1 %46, label %47, label %enlargeVariables.exit

47:                                               ; preds = %valid_variable_name.exit
  %48 = add i32 %30, 9
  store i32 %48, ptr %44, align 4
  %49 = sext i32 %48 to i64
  %50 = shl nsw i64 %49, 5
  %51 = tail call ptr @pg_realloc(ptr noundef %.pre, i64 noundef %50) #25
  store ptr %51, ptr %0, align 8
  %.pre25 = load i32, ptr %4, align 8
  br label %enlargeVariables.exit

enlargeVariables.exit:                            ; preds = %valid_variable_name.exit, %47
  %52 = phi i32 [ %30, %valid_variable_name.exit ], [ %.pre25, %47 ]
  %53 = phi ptr [ %.pre, %valid_variable_name.exit ], [ %51, %47 ]
  %54 = sext i32 %52 to i64
  %55 = getelementptr inbounds %struct.Variable, ptr %53, i64 %54
  %56 = tail call ptr @pg_strdup(ptr noundef nonnull %2) #25
  store ptr %56, ptr %55, align 8
  %57 = getelementptr inbounds nuw i8, ptr %55, i64 8
  store ptr null, ptr %57, align 8
  %58 = load i32, ptr %4, align 8
  %59 = add i32 %58, 1
  store i32 %59, ptr %4, align 8
  %60 = getelementptr inbounds nuw i8, ptr %0, i64 16
  store i8 0, ptr %60, align 8
  br label %lookupVariable.exit

lookupVariable.exit.loopexit:                     ; preds = %25
  %61 = getelementptr inbounds nuw i8, ptr %15, i64 %20
  br label %lookupVariable.exit

lookupVariable.exit:                              ; preds = %lookupVariable.exit.loopexit, %enlargeVariables.exit, %.loopexit
  %.016 = phi ptr [ null, %.loopexit ], [ %55, %enlargeVariables.exit ], [ %61, %lookupVariable.exit.loopexit ]
  ret ptr %.016
}